; Function Attrs: mustprogress uwtable
define void @_ZN6casadi5Conic16get_sparsity_outEx(ptr dead_on_unwind noalias writable sret(%"class.casadi::Sparsity") align 8 %0, ptr noundef nonnull readonly align 8 captures(none) dereferenceable(1520) %1, i64 noundef %2) unnamed_addr #4 align 2 {
  %4 = trunc i64 %2 to i32
  switch i32 %4, label %12 [
    i32 1, label %5
    i32 0, label %6
    i32 3, label %6
    i32 2, label %9
  ]

5:                                                ; preds = %3
  tail call void @_ZN6casadi8Sparsity5denseExx(ptr dead_on_unwind writable sret(%"class.casadi::Sparsity") align 8 %0, i64 noundef 1, i64 noundef 1)
  br label %13

6:                                                ; preds = %3, %3
  %7 = getelementptr inbounds nuw i8, ptr %1, i64 1496
  %8 = load i64, ptr %7, align 8, !tbaa !233
  tail call void @_ZN6casadi8Sparsity5denseExx(ptr dead_on_unwind writable sret(%"class.casadi::Sparsity") align 8 %0, i64 noundef %8, i64 noundef 1)
  br label %13

9:                                                ; preds = %3
  %10 = getelementptr inbounds nuw i8, ptr %1, i64 1504
  %11 = load i64, ptr %10, align 8, !tbaa !268
  tail call void @_ZN6casadi8Sparsity5denseExx(ptr dead_on_unwind writable sret(%"class.casadi::Sparsity") align 8 %0, i64 noundef %11, i64 noundef 1)
  br label %13

12:                                               ; preds = %3
  tail call void @_ZN6casadi8SparsityC1Ex(ptr noundef nonnull align 8 dereferenceable(8) %0, i64 noundef 0)
  br label %13

13:                                               ; preds = %12, %9, %6, %5
  ret void
}